; Function Attrs: mustprogress nofree norecurse nosync nounwind willreturn memory(read, inaccessiblemem: none) uwtable
define hidden noundef nonnull align 8 dereferenceable(8) ptr @_ZN3sat10simplifier9get_wlistENS_7literalE(ptr nocapture noundef nonnull readonly align 8 dereferenceable(288) %this, i32 %l.coerce) local_unnamed_addr #9 align 2 {
entry:
  %0 = load ptr, ptr %this, align 8
  %m_watches.i = getelementptr inbounds i8, ptr %0, i64 3432
  %1 = load ptr, ptr %m_watches.i, align 8
  %idxprom.i.i = zext i32 %l.coerce to i64
  %arrayidx.i.i = getelementptr inbounds %class.vector.51, ptr %1, i64 %idxprom.i.i
  ret ptr %arrayidx.i.i
}